target datalayout = "e-m:e-p270:32:32-p271:32:32-p272:64:64-i64:64-i128:128-f80:128-n8:16:32:64-S128"
target triple = "x86_64-pc-linux-gnu"

%"struct.Luau::CodeGen::IrOp" = type { i32 }

; Function Attrs: mustprogress uwtable
define dso_local void @_ZN4Luau7CodeGen21translateInstDupTableERNS0_9IrBuilderEPKji(ptr noundef nonnull align 8 dereferenceable(752) %0, ptr noundef %1, i32 noundef %2) #0 {
  %4 = alloca ptr, align 8
  %5 = alloca ptr, align 8
  %6 = alloca i32, align 4
  %7 = alloca i32, align 4
  %8 = alloca i32, align 4
  %9 = alloca %"struct.Luau::CodeGen::IrOp", align 4
  %10 = alloca %"struct.Luau::CodeGen::IrOp", align 4
  %11 = alloca %"struct.Luau::CodeGen::IrOp", align 4
  %12 = alloca %"struct.Luau::CodeGen::IrOp", align 4
  %13 = alloca %"struct.Luau::CodeGen::IrOp", align 4
  %14 = alloca %"struct.Luau::CodeGen::IrOp", align 4
  %15 = alloca %"struct.Luau::CodeGen::IrOp", align 4
  %16 = alloca %"struct.Luau::CodeGen::IrOp", align 4
  %17 = alloca %"struct.Luau::CodeGen::IrOp", align 4
  %18 = alloca %"struct.Luau::CodeGen::IrOp", align 4
  %19 = alloca %"struct.Luau::CodeGen::IrOp", align 4
  %20 = alloca %"struct.Luau::CodeGen::IrOp", align 4
  %21 = alloca %"struct.Luau::CodeGen::IrOp", align 4
  store ptr %0, ptr %4, align 8, !tbaa !4
  store ptr %1, ptr %5, align 8, !tbaa !9
  store i32 %2, ptr %6, align 4, !tbaa !11
  call void @llvm.lifetime.start.p0(i64 4, ptr %7) #13
  %22 = load ptr, ptr %5, align 8, !tbaa !9
  %23 = load i32, ptr %22, align 4, !tbaa !11
  %24 = lshr i32 %23, 8
  %25 = and i32 %24, 255
  store i32 %25, ptr %7, align 4, !tbaa !11
  call void @llvm.lifetime.start.p0(i64 4, ptr %8) #13
  %26 = load ptr, ptr %5, align 8, !tbaa !9
  %27 = load i32, ptr %26, align 4, !tbaa !11
  %28 = ashr i32 %27, 16
  store i32 %28, ptr %8, align 4, !tbaa !11
  %29 = load ptr, ptr %4, align 8, !tbaa !4
  %30 = load ptr, ptr %4, align 8, !tbaa !4
  %31 = load i32, ptr %6, align 4, !tbaa !11
  %32 = add nsw i32 %31, 1
  %33 = call i32 @_ZN4Luau7CodeGen9IrBuilder9constUintEj(ptr noundef nonnull align 8 dereferenceable(752) %30, i32 noundef %32)
  %34 = getelementptr inbounds nuw %"struct.Luau::CodeGen::IrOp", ptr %9, i32 0, i32 0
  store i32 %33, ptr %34, align 4
  %35 = getelementptr inbounds nuw %"struct.Luau::CodeGen::IrOp", ptr %9, i32 0, i32 0
  %36 = load i32, ptr %35, align 4
  %37 = call i32 @_ZN4Luau7CodeGen9IrBuilder4instENS0_5IrCmdENS0_4IrOpE(ptr noundef nonnull align 8 dereferenceable(752) %29, i8 noundef zeroext 98, i32 %36)
  %38 = getelementptr inbounds nuw %"struct.Luau::CodeGen::IrOp", ptr %10, i32 0, i32 0
  store i32 %37, ptr %38, align 4
  call void @llvm.lifetime.start.p0(i64 4, ptr %11) #13
  %39 = load ptr, ptr %4, align 8, !tbaa !4
  %40 = load ptr, ptr %4, align 8, !tbaa !4
  %41 = load i32, ptr %8, align 4, !tbaa !11
  %42 = call i32 @_ZN4Luau7CodeGen9IrBuilder7vmConstEj(ptr noundef nonnull align 8 dereferenceable(752) %40, i32 noundef %41)
  %43 = getelementptr inbounds nuw %"struct.Luau::CodeGen::IrOp", ptr %12, i32 0, i32 0
  store i32 %42, ptr %43, align 4
  %44 = getelementptr inbounds nuw %"struct.Luau::CodeGen::IrOp", ptr %12, i32 0, i32 0
  %45 = load i32, ptr %44, align 4
  %46 = call i32 @_ZN4Luau7CodeGen9IrBuilder4instENS0_5IrCmdENS0_4IrOpE(ptr noundef nonnull align 8 dereferenceable(752) %39, i8 noundef zeroext 2, i32 %45)
  %47 = getelementptr inbounds nuw %"struct.Luau::CodeGen::IrOp", ptr %11, i32 0, i32 0
  store i32 %46, ptr %47, align 4
  call void @llvm.lifetime.start.p0(i64 4, ptr %13) #13
  %48 = load ptr, ptr %4, align 8, !tbaa !4
  call void @llvm.memcpy.p0.p0.i64(ptr align 4 %14, ptr align 4 %11, i64 4, i1 false), !tbaa.struct !112
  %49 = getelementptr inbounds nuw %"struct.Luau::CodeGen::IrOp", ptr %14, i32 0, i32 0
  %50 = load i32, ptr %49, align 4
  %51 = call i32 @_ZN4Luau7CodeGen9IrBuilder4instENS0_5IrCmdENS0_4IrOpE(ptr noundef nonnull align 8 dereferenceable(752) %48, i8 noundef zeroext 58, i32 %50)
  %52 = getelementptr inbounds nuw %"struct.Luau::CodeGen::IrOp", ptr %13, i32 0, i32 0
  store i32 %51, ptr %52, align 4
  %53 = load ptr, ptr %4, align 8, !tbaa !4
  %54 = load ptr, ptr %4, align 8, !tbaa !4
  %55 = load i32, ptr %7, align 4, !tbaa !11
  %56 = trunc i32 %55 to i8
  %57 = call i32 @_ZN4Luau7CodeGen9IrBuilder5vmRegEh(ptr noundef nonnull align 8 dereferenceable(752) %54, i8 noundef zeroext %56)
  %58 = getelementptr inbounds nuw %"struct.Luau::CodeGen::IrOp", ptr %15, i32 0, i32 0
  store i32 %57, ptr %58, align 4
  call void @llvm.memcpy.p0.p0.i64(ptr align 4 %16, ptr align 4 %13, i64 4, i1 false), !tbaa.struct !112
  %59 = getelementptr inbounds nuw %"struct.Luau::CodeGen::IrOp", ptr %15, i32 0, i32 0
  %60 = load i32, ptr %59, align 4
  %61 = getelementptr inbounds nuw %"struct.Luau::CodeGen::IrOp", ptr %16, i32 0, i32 0
  %62 = load i32, ptr %61, align 4
  %63 = call i32 @_ZN4Luau7CodeGen9IrBuilder4instENS0_5IrCmdENS0_4IrOpES3_(ptr noundef nonnull align 8 dereferenceable(752) %53, i8 noundef zeroext 14, i32 %60, i32 %62)
  %64 = getelementptr inbounds nuw %"struct.Luau::CodeGen::IrOp", ptr %17, i32 0, i32 0
  store i32 %63, ptr %64, align 4
  %65 = load ptr, ptr %4, align 8, !tbaa !4
  %66 = load ptr, ptr %4, align 8, !tbaa !4
  %67 = load i32, ptr %7, align 4, !tbaa !11
  %68 = trunc i32 %67 to i8
  %69 = call i32 @_ZN4Luau7CodeGen9IrBuilder5vmRegEh(ptr noundef nonnull align 8 dereferenceable(752) %66, i8 noundef zeroext %68)
  %70 = getelementptr inbounds nuw %"struct.Luau::CodeGen::IrOp", ptr %18, i32 0, i32 0
  store i32 %69, ptr %70, align 4
  %71 = load ptr, ptr %4, align 8, !tbaa !4
  %72 = call i32 @_ZN4Luau7CodeGen9IrBuilder8constTagEh(ptr noundef nonnull align 8 dereferenceable(752) %71, i8 noundef zeroext 6)
  %73 = getelementptr inbounds nuw %"struct.Luau::CodeGen::IrOp", ptr %19, i32 0, i32 0
  store i32 %72, ptr %73, align 4
  %74 = getelementptr inbounds nuw %"struct.Luau::CodeGen::IrOp", ptr %18, i32 0, i32 0
  %75 = load i32, ptr %74, align 4
  %76 = getelementptr inbounds nuw %"struct.Luau::CodeGen::IrOp", ptr %19, i32 0, i32 0
  %77 = load i32, ptr %76, align 4
  %78 = call i32 @_ZN4Luau7CodeGen9IrBuilder4instENS0_5IrCmdENS0_4IrOpES3_(ptr noundef nonnull align 8 dereferenceable(752) %65, i8 noundef zeroext 12, i32 %75, i32 %77)
  %79 = getelementptr inbounds nuw %"struct.Luau::CodeGen::IrOp", ptr %20, i32 0, i32 0
  store i32 %78, ptr %79, align 4
  %80 = load ptr, ptr %4, align 8, !tbaa !4
  %81 = call i32 @_ZN4Luau7CodeGen9IrBuilder4instENS0_5IrCmdE(ptr noundef nonnull align 8 dereferenceable(752) %80, i8 noundef zeroext 94)
  %82 = getelementptr inbounds nuw %"struct.Luau::CodeGen::IrOp", ptr %21, i32 0, i32 0
  store i32 %81, ptr %82, align 4
  call void @llvm.lifetime.end.p0(i64 4, ptr %13) #13
  call void @llvm.lifetime.end.p0(i64 4, ptr %11) #13
  call void @llvm.lifetime.end.p0(i64 4, ptr %8) #13
  call void @llvm.lifetime.end.p0(i64 4, ptr %7) #13
  ret void
}